; Function Attrs: mustprogress uwtable
define internal fastcc noundef range(i32 0, 3) i32 @_ZN4Luau19EqSatSimplificationL13relateClassesEPKNS0_6TClassES3_(ptr %.0.val, ptr noundef readonly captures(none) %0) unnamed_addr #5 {
  %.not.i.i = icmp eq ptr %.0.val, null
  br i1 %.not.i.i, label %_ZN4Luau3getINS_9ClassTypeEEEPKT_PKNS_4TypeE.exit, label %2

2:                                                ; preds = %1
  %3 = load i32, ptr %.0.val, align 8, !tbaa !76
  %4 = icmp eq i32 %3, 11
  %5 = getelementptr inbounds nuw i8, ptr %.0.val, i64 8
  %6 = select i1 %4, ptr %5, ptr null
  br label %_ZN4Luau3getINS_9ClassTypeEEEPKT_PKNS_4TypeE.exit

_ZN4Luau3getINS_9ClassTypeEEEPKT_PKNS_4TypeE.exit: ; preds = %1, %2
  %7 = phi ptr [ %6, %2 ], [ null, %1 ]
  %8 = load ptr, ptr %0, align 8, !tbaa !74
  %.not.i.i6 = icmp eq ptr %8, null
  br i1 %.not.i.i6, label %_ZN4Luau3getINS_9ClassTypeEEEPKT_PKNS_4TypeE.exit7, label %9

9:                                                ; preds = %_ZN4Luau3getINS_9ClassTypeEEEPKT_PKNS_4TypeE.exit
  %10 = load i32, ptr %8, align 8, !tbaa !76
  %11 = icmp eq i32 %10, 11
  %12 = getelementptr inbounds nuw i8, ptr %8, i64 8
  %13 = select i1 %11, ptr %12, ptr null
  br label %_ZN4Luau3getINS_9ClassTypeEEEPKT_PKNS_4TypeE.exit7

_ZN4Luau3getINS_9ClassTypeEEEPKT_PKNS_4TypeE.exit7: ; preds = %_ZN4Luau3getINS_9ClassTypeEEEPKT_PKNS_4TypeE.exit, %9
  %14 = phi ptr [ %13, %9 ], [ null, %_ZN4Luau3getINS_9ClassTypeEEEPKT_PKNS_4TypeE.exit ]
  %15 = tail call noundef zeroext i1 @_ZN4Luau10isSubclassEPKNS_9ClassTypeES2_(ptr noundef %7, ptr noundef %14)
  br i1 %15, label %18, label %16

16:                                               ; preds = %_ZN4Luau3getINS_9ClassTypeEEEPKT_PKNS_4TypeE.exit7
  %17 = tail call noundef zeroext i1 @_ZN4Luau10isSubclassEPKNS_9ClassTypeES2_(ptr noundef %14, ptr noundef %7)
  %. = select i1 %17, i32 0, i32 2
  br label %18

18:                                               ; preds = %16, %_ZN4Luau3getINS_9ClassTypeEEEPKT_PKNS_4TypeE.exit7
  %.0 = phi i32 [ 1, %_ZN4Luau3getINS_9ClassTypeEEEPKT_PKNS_4TypeE.exit7 ], [ %., %16 ]
  ret i32 %.0
}